target datalayout = "e-m:e-p270:32:32-p271:32:32-p272:64:64-i64:64-i128:128-f80:128-n8:16:32:64-S128"
target triple = "x86_64-pc-linux-gnu"

@.str.3 = private unnamed_addr constant [2 x i8] c"\0A\00", align 1
@.str.4 = private unnamed_addr constant [32 x i8] c"    proc [options] [selection]\0A\00", align 1
@.str.5 = private unnamed_addr constant [71 x i8] c"This pass calls all the other proc_* passes in the most common order.\0A\00", align 1
@.str.6 = private unnamed_addr constant [16 x i8] c"    proc_clean\0A\00", align 1
@.str.7 = private unnamed_addr constant [17 x i8] c"    proc_rmdead\0A\00", align 1
@.str.8 = private unnamed_addr constant [16 x i8] c"    proc_prune\0A\00", align 1
@.str.9 = private unnamed_addr constant [15 x i8] c"    proc_init\0A\00", align 1
@.str.10 = private unnamed_addr constant [15 x i8] c"    proc_arst\0A\00", align 1
@.str.11 = private unnamed_addr constant [14 x i8] c"    proc_rom\0A\00", align 1
@.str.12 = private unnamed_addr constant [14 x i8] c"    proc_mux\0A\00", align 1
@.str.13 = private unnamed_addr constant [17 x i8] c"    proc_dlatch\0A\00", align 1
@.str.14 = private unnamed_addr constant [14 x i8] c"    proc_dff\0A\00", align 1
@.str.15 = private unnamed_addr constant [16 x i8] c"    proc_memwr\0A\00", align 1
@.str.16 = private unnamed_addr constant [22 x i8] c"    opt_expr -keepdc\0A\00", align 1
@.str.17 = private unnamed_addr constant [62 x i8] c"This replaces the processes in the design with multiplexers,\0A\00", align 1
@.str.18 = private unnamed_addr constant [25 x i8] c"flip-flops and latches.\0A\00", align 1
@.str.19 = private unnamed_addr constant [38 x i8] c"The following options are supported:\0A\00", align 1
@.str.20 = private unnamed_addr constant [12 x i8] c"    -nomux\0A\00", align 1
@.str.21 = private unnamed_addr constant [38 x i8] c"        Will omit the proc_mux pass.\0A\00", align 1
@.str.22 = private unnamed_addr constant [12 x i8] c"    -norom\0A\00", align 1
@.str.23 = private unnamed_addr constant [38 x i8] c"        Will omit the proc_rom pass.\0A\00", align 1
@.str.24 = private unnamed_addr constant [31 x i8] c"    -global_arst [!]<netname>\0A\00", align 1
@.str.25 = private unnamed_addr constant [53 x i8] c"        This option is passed through to proc_arst.\0A\00", align 1
@.str.26 = private unnamed_addr constant [10 x i8] c"    -ifx\0A\00", align 1
@.str.27 = private unnamed_addr constant [71 x i8] c"        This option is passed through to proc_mux. proc_rmdead is not\0A\00", align 1
@.str.28 = private unnamed_addr constant [32 x i8] c"        executed in -ifx mode.\0A\00", align 1
@.str.29 = private unnamed_addr constant [12 x i8] c"    -noopt\0A\00", align 1
@.str.30 = private unnamed_addr constant [38 x i8] c"        Will omit the opt_expr pass.\0A\00", align 1

; Function Attrs: mustprogress uwtable
define internal void @_ZN12_GLOBAL__N_18ProcPass4helpEv(ptr noundef nonnull align 8 dereferenceable(104) %0) unnamed_addr #4 align 2 {
  %2 = alloca ptr, align 8
  store ptr %0, ptr %2, align 8
  call void (ptr, ...) @_ZN5Yosys3logEPKcz(ptr noundef @.str.3)
  call void (ptr, ...) @_ZN5Yosys3logEPKcz(ptr noundef @.str.4)
  call void (ptr, ...) @_ZN5Yosys3logEPKcz(ptr noundef @.str.3)
  call void (ptr, ...) @_ZN5Yosys3logEPKcz(ptr noundef @.str.5)
  call void (ptr, ...) @_ZN5Yosys3logEPKcz(ptr noundef @.str.3)
  call void (ptr, ...) @_ZN5Yosys3logEPKcz(ptr noundef @.str.6)
  call void (ptr, ...) @_ZN5Yosys3logEPKcz(ptr noundef @.str.7)
  call void (ptr, ...) @_ZN5Yosys3logEPKcz(ptr noundef @.str.8)
  call void (ptr, ...) @_ZN5Yosys3logEPKcz(ptr noundef @.str.9)
  call void (ptr, ...) @_ZN5Yosys3logEPKcz(ptr noundef @.str.10)
  call void (ptr, ...) @_ZN5Yosys3logEPKcz(ptr noundef @.str.11)
  call void (ptr, ...) @_ZN5Yosys3logEPKcz(ptr noundef @.str.12)
  call void (ptr, ...) @_ZN5Yosys3logEPKcz(ptr noundef @.str.13)
  call void (ptr, ...) @_ZN5Yosys3logEPKcz(ptr noundef @.str.14)
  call void (ptr, ...) @_ZN5Yosys3logEPKcz(ptr noundef @.str.15)
  call void (ptr, ...) @_ZN5Yosys3logEPKcz(ptr noundef @.str.6)
  call void (ptr, ...) @_ZN5Yosys3logEPKcz(ptr noundef @.str.16)
  call void (ptr, ...) @_ZN5Yosys3logEPKcz(ptr noundef @.str.3)
  call void (ptr, ...) @_ZN5Yosys3logEPKcz(ptr noundef @.str.17)
  call void (ptr, ...) @_ZN5Yosys3logEPKcz(ptr noundef @.str.18)
  call void (ptr, ...) @_ZN5Yosys3logEPKcz(ptr noundef @.str.3)
  call void (ptr, ...) @_ZN5Yosys3logEPKcz(ptr noundef @.str.19)
  call void (ptr, ...) @_ZN5Yosys3logEPKcz(ptr noundef @.str.3)
  call void (ptr, ...) @_ZN5Yosys3logEPKcz(ptr noundef @.str.20)
  call void (ptr, ...) @_ZN5Yosys3logEPKcz(ptr noundef @.str.21)
  call void (ptr, ...) @_ZN5Yosys3logEPKcz(ptr noundef @.str.3)
  call void (ptr, ...) @_ZN5Yosys3logEPKcz(ptr noundef @.str.22)
  call void (ptr, ...) @_ZN5Yosys3logEPKcz(ptr noundef @.str.23)
  call void (ptr, ...) @_ZN5Yosys3logEPKcz(ptr noundef @.str.3)
  call void (ptr, ...) @_ZN5Yosys3logEPKcz(ptr noundef @.str.24)
  call void (ptr, ...) @_ZN5Yosys3logEPKcz(ptr noundef @.str.25)
  call void (ptr, ...) @_ZN5Yosys3logEPKcz(ptr noundef @.str.3)
  call void (ptr, ...) @_ZN5Yosys3logEPKcz(ptr noundef @.str.26)
  call void (ptr, ...) @_ZN5Yosys3logEPKcz(ptr noundef @.str.27)
  call void (ptr, ...) @_ZN5Yosys3logEPKcz(ptr noundef @.str.28)
  call void (ptr, ...) @_ZN5Yosys3logEPKcz(ptr noundef @.str.3)
  call void (ptr, ...) @_ZN5Yosys3logEPKcz(ptr noundef @.str.29)
  call void (ptr, ...) @_ZN5Yosys3logEPKcz(ptr noundef @.str.30)
  call void (ptr, ...) @_ZN5Yosys3logEPKcz(ptr noundef @.str.3)
  ret void
}